target datalayout = "e-m:e-p270:32:32-p271:32:32-p272:64:64-i64:64-i128:128-f80:128-n8:16:32:64-S128"
target triple = "x86_64-pc-linux-gnu"

%struct._zend_executor_globals = type { %struct._zval_struct, %struct._zval_struct, [32 x ptr], ptr, ptr, %struct._zend_array, %struct._zend_array, ptr, i32, i32, ptr, ptr, ptr, ptr, ptr, ptr, i64, ptr, ptr, i32, i32, i64, i32, i32, i32, i8, i8, %struct.zend_atomic_bool_s, %struct.zend_atomic_bool_s, ptr, i64, ptr, ptr, %struct._zend_array, %struct._zend_array, i32, i8, %struct._zval_struct, %struct._zval_struct, %struct._zend_stack, %struct._zend_stack, %struct._zend_stack, ptr, i32, i32, i64, ptr, ptr, ptr, %struct._zend_objects_store, ptr, ptr, ptr, [3 x %struct._zend_op], ptr, i8, i8, i64, i32, i32, ptr, [16 x %struct._HashTableIterator], ptr, %union._zend_function, %struct._zend_op, %struct._zend_array, i64, %struct.zend_get_gc_buffer, ptr, ptr, ptr, i64, i8, i32, ptr, ptr, i64, %struct._zend_call_stack, i64, i64, [6 x ptr] }
%struct.zend_atomic_bool_s = type { i8 }
%struct._zval_struct = type { %union._zend_value, %union.anon, %union.anon.2 }
%union._zend_value = type { i64 }
%union.anon = type { i32 }
%union.anon.2 = type { i32 }
%struct._zend_stack = type { i32, i32, i32, ptr }
%struct._zend_objects_store = type { ptr, i32, i32, i32 }
%struct._HashTableIterator = type { ptr, i32, i32 }
%union._zend_function = type { %struct._zend_op_array }
%struct._zend_op_array = type { i8, [3 x i8], i32, ptr, ptr, ptr, i32, i32, ptr, ptr, ptr, ptr, i32, i32, i32, i32, ptr, ptr, ptr, ptr, ptr, i32, i32, ptr, ptr, ptr, i32, i32, i32, i32, ptr, ptr, [6 x ptr] }
%struct._zend_op = type { ptr, %union._znode_op, %union._znode_op, %union._znode_op, i32, i32, i8, i8, i8, i8 }
%union._znode_op = type { i32 }
%struct._zend_array = type { %struct._zend_refcounted_h, %union.anon.4, i32, %union.anon.6, i32, i32, i32, i32, i64, ptr }
%struct._zend_refcounted_h = type { i32, %union.anon.3 }
%union.anon.3 = type { i32 }
%union.anon.4 = type { i32 }
%union.anon.6 = type { ptr }
%struct.zend_get_gc_buffer = type { ptr, ptr, ptr }
%struct._zend_call_stack = type { ptr, i64 }
%struct._zend_object_iterator_funcs = type { ptr, ptr, ptr, ptr, ptr, ptr, ptr, ptr }
%struct._zend_object = type { %struct._zend_refcounted_h, i32, ptr, ptr, ptr, [1 x %struct._zval_struct] }
%struct._spl_recursive_it_object = type { ptr, i32, i32, i32, i32, i8, ptr, ptr, ptr, ptr, ptr, ptr, ptr, ptr, [6 x ptr], [1 x ptr], %struct._zend_object }
%struct.anon.7 = type { i8, [3 x i8], i32, ptr, ptr, ptr, i32, i32, ptr, ptr, ptr, ptr, i32 }
%struct._spl_sub_iterator = type { ptr, %struct._zval_struct, ptr, i32, ptr, ptr }
%struct._zend_object_iterator = type { %struct._zend_object, %struct._zval_struct, ptr, i64 }

@spl_ce_RecursiveIteratorIterator = global ptr null, align 8
@executor_globals = external global %struct._zend_executor_globals, align 8
@.str = private unnamed_addr constant [75 x i8] c"The object is in an invalid state as the parent constructor was not called\00", align 1
@.str.33 = private unnamed_addr constant [12 x i8] c"endchildren\00", align 1
@.str.37 = private unnamed_addr constant [15 x i8] c"beginIteration\00", align 1

; Function Attrs: nounwind uwtable
define internal void @spl_recursive_it_rewind_ex(ptr noundef %0, ptr noundef %1) #0 {
  %3 = alloca ptr, align 8
  %4 = alloca ptr, align 8
  %5 = alloca ptr, align 8
  %6 = alloca ptr, align 8
  %7 = alloca ptr, align 8
  %8 = alloca ptr, align 8
  %9 = alloca ptr, align 8
  %10 = alloca ptr, align 8
  %11 = alloca ptr, align 8
  %12 = alloca ptr, align 8
  %13 = alloca ptr, align 8
  %14 = alloca ptr, align 8
  %15 = alloca ptr, align 8
  store ptr %0, ptr %13, align 8
  store ptr %1, ptr %14, align 8
  br label %16

16:                                               ; preds = %2
  %17 = load ptr, ptr %13, align 8
  %18 = getelementptr inbounds %struct._spl_recursive_it_object, ptr %17, i32 0, i32 0
  %19 = load ptr, ptr %18, align 8
  %20 = icmp ne ptr %19, null
  br i1 %20, label %22, label %21

21:                                               ; preds = %16
  call void (ptr, ptr, ...) @zend_throw_error(ptr noundef null, ptr noundef @.str)
  br label %160

22:                                               ; preds = %16
  %23 = load ptr, ptr %13, align 8
  %24 = getelementptr inbounds %struct._spl_recursive_it_object, ptr %23, i32 0, i32 0
  %25 = load ptr, ptr %24, align 8
  %26 = load ptr, ptr %13, align 8
  %27 = getelementptr inbounds %struct._spl_recursive_it_object, ptr %26, i32 0, i32 1
  %28 = load i32, ptr %27, align 8
  %29 = sext i32 %28 to i64
  %30 = getelementptr inbounds %struct._spl_sub_iterator, ptr %25, i64 %29
  %31 = getelementptr inbounds %struct._spl_sub_iterator, ptr %30, i32 0, i32 0
  %32 = load ptr, ptr %31, align 8
  store ptr %32, ptr %15, align 8
  br label %33

33:                                               ; preds = %22
  br label %34

34:                                               ; preds = %93, %33
  %35 = load ptr, ptr %13, align 8
  %36 = getelementptr inbounds %struct._spl_recursive_it_object, ptr %35, i32 0, i32 1
  %37 = load i32, ptr %36, align 8
  %38 = icmp ne i32 %37, 0
  br i1 %38, label %39, label %94

39:                                               ; preds = %34
  %40 = load ptr, ptr %13, align 8
  %41 = getelementptr inbounds %struct._spl_recursive_it_object, ptr %40, i32 0, i32 0
  %42 = load ptr, ptr %41, align 8
  %43 = load ptr, ptr %13, align 8
  %44 = getelementptr inbounds %struct._spl_recursive_it_object, ptr %43, i32 0, i32 1
  %45 = load i32, ptr %44, align 8
  %46 = sext i32 %45 to i64
  %47 = getelementptr inbounds %struct._spl_sub_iterator, ptr %42, i64 %46
  %48 = getelementptr inbounds %struct._spl_sub_iterator, ptr %47, i32 0, i32 0
  %49 = load ptr, ptr %48, align 8
  store ptr %49, ptr %15, align 8
  %50 = load ptr, ptr %15, align 8
  call void @zend_iterator_dtor(ptr noundef %50)
  %51 = load ptr, ptr %13, align 8
  %52 = getelementptr inbounds %struct._spl_recursive_it_object, ptr %51, i32 0, i32 0
  %53 = load ptr, ptr %52, align 8
  %54 = load ptr, ptr %13, align 8
  %55 = getelementptr inbounds %struct._spl_recursive_it_object, ptr %54, i32 0, i32 1
  %56 = load i32, ptr %55, align 8
  %57 = add nsw i32 %56, -1
  store i32 %57, ptr %55, align 8
  %58 = sext i32 %56 to i64
  %59 = getelementptr inbounds %struct._spl_sub_iterator, ptr %53, i64 %58
  %60 = getelementptr inbounds %struct._spl_sub_iterator, ptr %59, i32 0, i32 1
  call void @zval_ptr_dtor(ptr noundef %60)
  %61 = load ptr, ptr getelementptr inbounds (%struct._zend_executor_globals, ptr @executor_globals, i32 0, i32 50), align 8
  %62 = icmp ne ptr %61, null
  br i1 %62, label %93, label %63

63:                                               ; preds = %39
  %64 = load ptr, ptr %13, align 8
  %65 = getelementptr inbounds %struct._spl_recursive_it_object, ptr %64, i32 0, i32 11
  %66 = load ptr, ptr %65, align 8
  %67 = icmp ne ptr %66, null
  br i1 %67, label %68, label %76

68:                                               ; preds = %63
  %69 = load ptr, ptr %13, align 8
  %70 = getelementptr inbounds %struct._spl_recursive_it_object, ptr %69, i32 0, i32 11
  %71 = load ptr, ptr %70, align 8
  %72 = getelementptr inbounds %struct.anon.7, ptr %71, i32 0, i32 4
  %73 = load ptr, ptr %72, align 8
  %74 = load ptr, ptr @spl_ce_RecursiveIteratorIterator, align 8
  %75 = icmp ne ptr %73, %74
  br i1 %75, label %76, label %93

76:                                               ; preds = %68, %63
  %77 = load ptr, ptr %14, align 8
  %78 = getelementptr inbounds %struct._zval_struct, ptr %77, i32 0, i32 0
  %79 = load ptr, ptr %78, align 8
  %80 = load ptr, ptr %13, align 8
  %81 = getelementptr inbounds %struct._spl_recursive_it_object, ptr %80, i32 0, i32 13
  %82 = load ptr, ptr %81, align 8
  %83 = load ptr, ptr %13, align 8
  %84 = getelementptr inbounds %struct._spl_recursive_it_object, ptr %83, i32 0, i32 11
  store ptr %79, ptr %3, align 8
  store ptr %82, ptr %4, align 8
  store ptr %84, ptr %5, align 8
  store ptr @.str.33, ptr %6, align 8
  store ptr null, ptr %7, align 8
  %85 = load ptr, ptr %3, align 8
  %86 = load ptr, ptr %4, align 8
  %87 = load ptr, ptr %5, align 8
  %88 = load ptr, ptr %6, align 8
  %89 = load ptr, ptr %6, align 8
  %90 = call i64 @strlen(ptr noundef %89) #11
  %91 = load ptr, ptr %7, align 8
  %92 = call ptr @zend_call_method(ptr noundef %85, ptr noundef %86, ptr noundef %87, ptr noundef %88, i64 noundef %90, ptr noundef %91, i32 noundef 0, ptr noundef null, ptr noundef null) #10
  br label %93

93:                                               ; preds = %76, %68, %39
  br label %34

94:                                               ; preds = %34
  %95 = load ptr, ptr %13, align 8
  %96 = getelementptr inbounds %struct._spl_recursive_it_object, ptr %95, i32 0, i32 0
  %97 = load ptr, ptr %96, align 8
  %98 = call ptr @_erealloc(ptr noundef %97, i64 noundef 56) #12
  %99 = load ptr, ptr %13, align 8
  %100 = getelementptr inbounds %struct._spl_recursive_it_object, ptr %99, i32 0, i32 0
  store ptr %98, ptr %100, align 8
  %101 = load ptr, ptr %13, align 8
  %102 = getelementptr inbounds %struct._spl_recursive_it_object, ptr %101, i32 0, i32 0
  %103 = load ptr, ptr %102, align 8
  %104 = getelementptr inbounds %struct._spl_sub_iterator, ptr %103, i64 0
  %105 = getelementptr inbounds %struct._spl_sub_iterator, ptr %104, i32 0, i32 3
  store i32 4, ptr %105, align 8
  %106 = load ptr, ptr %13, align 8
  %107 = getelementptr inbounds %struct._spl_recursive_it_object, ptr %106, i32 0, i32 0
  %108 = load ptr, ptr %107, align 8
  %109 = getelementptr inbounds %struct._spl_sub_iterator, ptr %108, i64 0
  %110 = getelementptr inbounds %struct._spl_sub_iterator, ptr %109, i32 0, i32 0
  %111 = load ptr, ptr %110, align 8
  store ptr %111, ptr %15, align 8
  %112 = load ptr, ptr %15, align 8
  %113 = getelementptr inbounds %struct._zend_object_iterator, ptr %112, i32 0, i32 2
  %114 = load ptr, ptr %113, align 8
  %115 = getelementptr inbounds %struct._zend_object_iterator_funcs, ptr %114, i32 0, i32 5
  %116 = load ptr, ptr %115, align 8
  %117 = icmp ne ptr %116, null
  br i1 %117, label %118, label %125

118:                                              ; preds = %94
  %119 = load ptr, ptr %15, align 8
  %120 = getelementptr inbounds %struct._zend_object_iterator, ptr %119, i32 0, i32 2
  %121 = load ptr, ptr %120, align 8
  %122 = getelementptr inbounds %struct._zend_object_iterator_funcs, ptr %121, i32 0, i32 5
  %123 = load ptr, ptr %122, align 8
  %124 = load ptr, ptr %15, align 8
  call void %123(ptr noundef %124)
  br label %125

125:                                              ; preds = %118, %94
  %126 = load ptr, ptr getelementptr inbounds (%struct._zend_executor_globals, ptr @executor_globals, i32 0, i32 50), align 8
  %127 = icmp ne ptr %126, null
  br i1 %127, label %155, label %128

128:                                              ; preds = %125
  %129 = load ptr, ptr %13, align 8
  %130 = getelementptr inbounds %struct._spl_recursive_it_object, ptr %129, i32 0, i32 6
  %131 = load ptr, ptr %130, align 8
  %132 = icmp ne ptr %131, null
  br i1 %132, label %133, label %155

133:                                              ; preds = %128
  %134 = load ptr, ptr %13, align 8
  %135 = getelementptr inbounds %struct._spl_recursive_it_object, ptr %134, i32 0, i32 5
  %136 = load i8, ptr %135, align 8
  %137 = trunc i8 %136 to i1
  br i1 %137, label %155, label %138

138:                                              ; preds = %133
  %139 = load ptr, ptr %14, align 8
  %140 = getelementptr inbounds %struct._zval_struct, ptr %139, i32 0, i32 0
  %141 = load ptr, ptr %140, align 8
  %142 = load ptr, ptr %13, align 8
  %143 = getelementptr inbounds %struct._spl_recursive_it_object, ptr %142, i32 0, i32 13
  %144 = load ptr, ptr %143, align 8
  %145 = load ptr, ptr %13, align 8
  %146 = getelementptr inbounds %struct._spl_recursive_it_object, ptr %145, i32 0, i32 6
  store ptr %141, ptr %8, align 8
  store ptr %144, ptr %9, align 8
  store ptr %146, ptr %10, align 8
  store ptr @.str.37, ptr %11, align 8
  store ptr null, ptr %12, align 8
  %147 = load ptr, ptr %8, align 8
  %148 = load ptr, ptr %9, align 8
  %149 = load ptr, ptr %10, align 8
  %150 = load ptr, ptr %11, align 8
  %151 = load ptr, ptr %11, align 8
  %152 = call i64 @strlen(ptr noundef %151) #11
  %153 = load ptr, ptr %12, align 8
  %154 = call ptr @zend_call_method(ptr noundef %147, ptr noundef %148, ptr noundef %149, ptr noundef %150, i64 noundef %152, ptr noundef %153, i32 noundef 0, ptr noundef null, ptr noundef null) #10
  br label %155

155:                                              ; preds = %138, %133, %128, %125
  %156 = load ptr, ptr %13, align 8
  %157 = getelementptr inbounds %struct._spl_recursive_it_object, ptr %156, i32 0, i32 5
  store i8 1, ptr %157, align 8
  %158 = load ptr, ptr %13, align 8
  %159 = load ptr, ptr %14, align 8
  call void @spl_recursive_it_move_forward_ex(ptr noundef %158, ptr noundef %159)
  br label %160

160:                                              ; preds = %155, %21
  ret void
}