; Function Attrs: nounwind uwtable
define internal fastcc void @spl_recursive_it_rewind_ex(ptr noundef %0, ptr nocapture noundef readonly %1) unnamed_addr #0 {
  %3 = load ptr, ptr %0, align 8
  %.not = icmp eq ptr %3, null
  br i1 %.not, label %4, label %5

4:                                                ; preds = %2
  tail call void (ptr, ptr, ...) @zend_throw_error(ptr noundef null, ptr noundef nonnull @.str) #10
  br label %60

5:                                                ; preds = %2
  %6 = getelementptr inbounds i8, ptr %0, i64 8
  %7 = load i32, ptr %6, align 8
  %.not4452 = icmp eq i32 %7, 0
  br i1 %.not4452, label %._crit_edge, label %.lr.ph

.lr.ph:                                           ; preds = %5
  %8 = getelementptr inbounds i8, ptr %0, i64 72
  %9 = getelementptr inbounds i8, ptr %0, i64 88
  br label %10

10:                                               ; preds = %.lr.ph, %32
  %11 = phi i32 [ %7, %.lr.ph ], [ %33, %32 ]
  %12 = load ptr, ptr %0, align 8
  %13 = sext i32 %11 to i64
  %14 = getelementptr inbounds %struct._spl_sub_iterator, ptr %12, i64 %13
  %15 = load ptr, ptr %14, align 8
  tail call void @zend_iterator_dtor(ptr noundef %15) #10
  %16 = load ptr, ptr %0, align 8
  %17 = load i32, ptr %6, align 8
  %18 = add nsw i32 %17, -1
  store i32 %18, ptr %6, align 8
  %19 = sext i32 %17 to i64
  %20 = getelementptr inbounds %struct._spl_sub_iterator, ptr %16, i64 %19, i32 1
  tail call void @zval_ptr_dtor(ptr noundef nonnull %20) #10
  %21 = load ptr, ptr getelementptr inbounds (%struct._zend_executor_globals, ptr @executor_globals, i64 0, i32 50), align 8
  %.not49 = icmp eq ptr %21, null
  br i1 %.not49, label %22, label %32

22:                                               ; preds = %10
  %23 = load ptr, ptr %8, align 8
  %.not50 = icmp eq ptr %23, null
  br i1 %.not50, label %28, label %24

24:                                               ; preds = %22
  %25 = getelementptr inbounds i8, ptr %23, i64 16
  %26 = load ptr, ptr %25, align 8
  %27 = load ptr, ptr @spl_ce_RecursiveIteratorIterator, align 8
  %.not51 = icmp eq ptr %26, %27
  br i1 %.not51, label %32, label %28

28:                                               ; preds = %24, %22
  %29 = load ptr, ptr %1, align 8
  %30 = load ptr, ptr %9, align 8
  %31 = tail call ptr @zend_call_method(ptr noundef %29, ptr noundef %30, ptr noundef nonnull %8, ptr noundef nonnull @.str.33, i64 noundef 11, ptr noundef null, i32 noundef 0, ptr noundef null, ptr noundef null) #10
  br label %32

32:                                               ; preds = %28, %24, %10
  %33 = load i32, ptr %6, align 8
  %.not44 = icmp eq i32 %33, 0
  br i1 %.not44, label %._crit_edge.loopexit, label %10

._crit_edge.loopexit:                             ; preds = %32
  %.pre = load ptr, ptr %0, align 8
  br label %._crit_edge

._crit_edge:                                      ; preds = %._crit_edge.loopexit, %5
  %34 = phi ptr [ %.pre, %._crit_edge.loopexit ], [ %3, %5 ]
  %35 = tail call dereferenceable_or_null(56) ptr @_erealloc(ptr noundef %34, i64 noundef 56) #11
  store ptr %35, ptr %0, align 8
  %36 = getelementptr inbounds i8, ptr %35, i64 32
  store i32 4, ptr %36, align 8
  %37 = load ptr, ptr %0, align 8
  %38 = load ptr, ptr %37, align 8
  %39 = getelementptr inbounds i8, ptr %38, i64 72
  %40 = load ptr, ptr %39, align 8
  %41 = getelementptr inbounds i8, ptr %40, i64 40
  %42 = load ptr, ptr %41, align 8
  %.not45 = icmp eq ptr %42, null
  br i1 %.not45, label %44, label %43

43:                                               ; preds = %._crit_edge
  tail call void %42(ptr noundef nonnull %38) #10
  br label %44

44:                                               ; preds = %43, %._crit_edge
  %45 = load ptr, ptr getelementptr inbounds (%struct._zend_executor_globals, ptr @executor_globals, i64 0, i32 50), align 8
  %.not46 = icmp eq ptr %45, null
  br i1 %.not46, label %46, label %58

46:                                               ; preds = %44
  %47 = getelementptr inbounds i8, ptr %0, i64 32
  %48 = load ptr, ptr %47, align 8
  %.not47 = icmp eq ptr %48, null
  br i1 %.not47, label %58, label %49

49:                                               ; preds = %46
  %50 = getelementptr inbounds i8, ptr %0, i64 24
  %51 = load i8, ptr %50, align 8
  %52 = and i8 %51, 1
  %.not48 = icmp eq i8 %52, 0
  br i1 %.not48, label %53, label %58

53:                                               ; preds = %49
  %54 = load ptr, ptr %1, align 8
  %55 = getelementptr inbounds i8, ptr %0, i64 88
  %56 = load ptr, ptr %55, align 8
  %57 = tail call ptr @zend_call_method(ptr noundef %54, ptr noundef %56, ptr noundef nonnull %47, ptr noundef nonnull @.str.37, i64 noundef 14, ptr noundef null, i32 noundef 0, ptr noundef null, ptr noundef null) #10
  br label %58

58:                                               ; preds = %53, %49, %46, %44
  %59 = getelementptr inbounds i8, ptr %0, i64 24
  store i8 1, ptr %59, align 8
  tail call fastcc void @spl_recursive_it_move_forward_ex(ptr noundef nonnull %0, ptr noundef %1)
  br label %60

60:                                               ; preds = %58, %4
  ret void
}